target datalayout = "e-m:e-p270:32:32-p271:32:32-p272:64:64-i64:64-i128:128-f80:128-n8:16:32:64-S128"
target triple = "x86_64-pc-linux-gnu"

%struct.expert_field = type { i32, i32 }
%struct._endpoint_guid = type { i32, i32, i32, i32, i32 }

@hf_rtps_sm_flags = internal global i32 0, align 4
@hf_rtps_sm_octets_to_next_header = internal global i32 0, align 4
@hf_rtps_sm_rdentity_id = internal global i32 0, align 4
@.str.88 = private unnamed_addr constant [15 x i8] c"readerEntityId\00", align 1
@hf_rtps_sm_rdentity_id_key = internal global i32 0, align 4
@hf_rtps_sm_rdentity_id_kind = internal global i32 0, align 4
@hf_rtps_sm_wrentity_id = internal global i32 0, align 4
@.str.97 = private unnamed_addr constant [15 x i8] c"writerEntityId\00", align 1
@hf_rtps_sm_wrentity_id_key = internal global i32 0, align 4
@hf_rtps_sm_wrentity_id_kind = internal global i32 0, align 4
@hf_rtps_acknack_count = internal global i32 0, align 4
@ett_rtps_flags = internal global i32 0, align 4
@ett_rtps_rdentity = internal global i32 0, align 4
@ett_rtps_wrentity = internal global i32 0, align 4
@ei_rtps_sm_octets_to_next_header_error = internal global %struct.expert_field zeroinitializer, align 4
@ei_rtps_extra_bytes = internal global %struct.expert_field zeroinitializer, align 4
@ei_rtps_missing_bytes = internal global %struct.expert_field zeroinitializer, align 4
@ACKNACK_FLAGS = internal constant [9 x ptr] [ptr @hf_rtps_flag_reserved80, ptr @hf_rtps_flag_reserved40, ptr @hf_rtps_flag_reserved20, ptr @hf_rtps_flag_reserved10, ptr @hf_rtps_flag_reserved08, ptr @hf_rtps_flag_reserved04, ptr @hf_rtps_flag_final, ptr @hf_rtps_flag_endianness, ptr null], align 16
@.str.1326 = private unnamed_addr constant [25 x i8] c"(Error: should be >= 20)\00", align 1
@.str.1327 = private unnamed_addr constant [14 x i8] c"readerSNState\00", align 1
@.str.1328 = private unnamed_addr constant [47 x i8] c"Don't know how to decode those extra bytes: %d\00", align 1

; Function Attrs: null_pointer_is_valid sspstrong uwtable
define internal void @dissect_ACKNACK(ptr noundef %0, ptr noundef %1, i32 noundef %2, i8 noundef zeroext %3, i32 noundef %4, i32 noundef %5, ptr noundef %6, ptr noundef %7, ptr noundef %8) #0 {
  %10 = alloca ptr, align 8
  %11 = alloca ptr, align 8
  %12 = alloca i32, align 4
  %13 = alloca i8, align 1
  %14 = alloca i32, align 4
  %15 = alloca i32, align 4
  %16 = alloca ptr, align 8
  %17 = alloca ptr, align 8
  %18 = alloca ptr, align 8
  %19 = alloca i32, align 4
  %20 = alloca ptr, align 8
  %21 = alloca i32, align 4
  %22 = alloca i32, align 4
  store ptr %0, ptr %10, align 8
  store ptr %1, ptr %11, align 8
  store i32 %2, ptr %12, align 4
  store i8 %3, ptr %13, align 1
  store i32 %4, ptr %14, align 4
  store i32 %5, ptr %15, align 4
  store ptr %6, ptr %16, align 8
  store ptr %7, ptr %17, align 8
  store ptr %8, ptr %18, align 8
  call void @llvm.lifetime.start.p0(i64 4, ptr %19) #14
  call void @llvm.lifetime.start.p0(i64 8, ptr %20) #14
  call void @llvm.lifetime.start.p0(i64 4, ptr %21) #14
  %23 = load ptr, ptr %16, align 8
  %24 = load ptr, ptr %10, align 8
  %25 = load i32, ptr %12, align 4
  %26 = add i32 %25, 1
  %27 = load i32, ptr @hf_rtps_sm_flags, align 4
  %28 = load i32, ptr @ett_rtps_flags, align 4
  %29 = load i8, ptr %13, align 1
  %30 = zext i8 %29 to i64
  %31 = call ptr @proto_tree_add_bitmask_value(ptr noundef %23, ptr noundef %24, i32 noundef %26, i32 noundef %27, i32 noundef %28, ptr noundef @ACKNACK_FLAGS, i64 noundef %30)
  %32 = load ptr, ptr %16, align 8
  %33 = load i32, ptr @hf_rtps_sm_octets_to_next_header, align 4
  %34 = load ptr, ptr %10, align 8
  %35 = load i32, ptr %12, align 4
  %36 = add i32 %35, 2
  %37 = load i32, ptr %14, align 4
  %38 = call ptr @proto_tree_add_item(ptr noundef %32, i32 noundef %33, ptr noundef %34, i32 noundef %36, i32 noundef 2, i32 noundef %37)
  store ptr %38, ptr %20, align 8
  %39 = load i32, ptr %15, align 4
  %40 = icmp slt i32 %39, 20
  br i1 %40, label %41, label %45

41:                                               ; preds = %9
  %42 = load ptr, ptr %11, align 8
  %43 = load ptr, ptr %20, align 8
  %44 = call ptr (ptr, ptr, ptr, ptr, ...) @expert_add_info_format(ptr noundef %42, ptr noundef %43, ptr noundef @ei_rtps_sm_octets_to_next_header_error, ptr noundef @.str.1326)
  store i32 1, ptr %22, align 4
  br label %127

45:                                               ; preds = %9
  %46 = load i32, ptr %12, align 4
  %47 = add i32 %46, 4
  store i32 %47, ptr %12, align 4
  %48 = load i32, ptr %12, align 4
  store i32 %48, ptr %19, align 4
  %49 = load ptr, ptr %16, align 8
  %50 = load ptr, ptr %10, align 8
  %51 = load i32, ptr %12, align 4
  %52 = load i32, ptr @hf_rtps_sm_rdentity_id, align 4
  %53 = load i32, ptr @hf_rtps_sm_rdentity_id_key, align 4
  %54 = load i32, ptr @hf_rtps_sm_rdentity_id_kind, align 4
  %55 = load i32, ptr @ett_rtps_rdentity, align 4
  %56 = call zeroext i1 @rtps_util_add_entity_id(ptr noundef %49, ptr noundef %50, i32 noundef %51, i32 noundef %52, i32 noundef %53, i32 noundef %54, i32 noundef %55, ptr noundef @.str.88, ptr noundef null)
  %57 = load i32, ptr %12, align 4
  %58 = add i32 %57, 4
  store i32 %58, ptr %12, align 4
  %59 = load ptr, ptr %16, align 8
  %60 = load ptr, ptr %10, align 8
  %61 = load i32, ptr %12, align 4
  %62 = load i32, ptr @hf_rtps_sm_wrentity_id, align 4
  %63 = load i32, ptr @hf_rtps_sm_wrentity_id_key, align 4
  %64 = load i32, ptr @hf_rtps_sm_wrentity_id_kind, align 4
  %65 = load i32, ptr @ett_rtps_wrentity, align 4
  %66 = call zeroext i1 @rtps_util_add_entity_id(ptr noundef %59, ptr noundef %60, i32 noundef %61, i32 noundef %62, i32 noundef %63, i32 noundef %64, i32 noundef %65, ptr noundef @.str.97, ptr noundef %21)
  %67 = load i32, ptr %12, align 4
  %68 = add i32 %67, 4
  store i32 %68, ptr %12, align 4
  %69 = load i32, ptr %21, align 4
  %70 = load ptr, ptr %18, align 8
  %71 = getelementptr inbounds nuw %struct._endpoint_guid, ptr %70, i32 0, i32 4
  store i32 %69, ptr %71, align 4
  %72 = load ptr, ptr %18, align 8
  %73 = getelementptr inbounds nuw %struct._endpoint_guid, ptr %72, i32 0, i32 0
  %74 = load i32, ptr %73, align 4
  %75 = or i32 %74, 8
  store i32 %75, ptr %73, align 4
  %76 = load ptr, ptr %16, align 8
  %77 = load ptr, ptr %11, align 8
  %78 = load ptr, ptr %10, align 8
  %79 = load i32, ptr %12, align 4
  %80 = load ptr, ptr %18, align 8
  %81 = call ptr @rtps_util_add_topic_info(ptr noundef %76, ptr noundef %77, ptr noundef %78, i32 noundef %79, ptr noundef %80)
  %82 = load ptr, ptr %16, align 8
  %83 = load ptr, ptr %11, align 8
  %84 = load ptr, ptr %10, align 8
  %85 = load i32, ptr %12, align 4
  %86 = load i32, ptr %14, align 4
  %87 = call i32 @rtps_util_add_bitmap(ptr noundef %82, ptr noundef %83, ptr noundef %84, i32 noundef %85, i32 noundef %86, ptr noundef @.str.1327, i1 noundef zeroext true)
  store i32 %87, ptr %12, align 4
  %88 = load i32, ptr %12, align 4
  %89 = add i32 %88, 4
  %90 = load i32, ptr %19, align 4
  %91 = load i32, ptr %15, align 4
  %92 = add i32 %90, %91
  %93 = icmp eq i32 %89, %92
  br i1 %93, label %94, label %101

94:                                               ; preds = %45
  %95 = load ptr, ptr %16, align 8
  %96 = load i32, ptr @hf_rtps_acknack_count, align 4
  %97 = load ptr, ptr %10, align 8
  %98 = load i32, ptr %12, align 4
  %99 = load i32, ptr %14, align 4
  %100 = call ptr @proto_tree_add_item(ptr noundef %95, i32 noundef %96, ptr noundef %97, i32 noundef %98, i32 noundef 4, i32 noundef %99)
  br label %126

101:                                              ; preds = %45
  %102 = load i32, ptr %12, align 4
  %103 = load i32, ptr %19, align 4
  %104 = load i32, ptr %15, align 4
  %105 = add i32 %103, %104
  %106 = icmp slt i32 %102, %105
  br i1 %106, label %107, label %114

107:                                              ; preds = %101
  %108 = load ptr, ptr %11, align 8
  %109 = load ptr, ptr %17, align 8
  %110 = load i32, ptr %15, align 4
  %111 = load i32, ptr %12, align 4
  %112 = sub i32 %110, %111
  %113 = call ptr (ptr, ptr, ptr, ptr, ...) @expert_add_info_format(ptr noundef %108, ptr noundef %109, ptr noundef @ei_rtps_extra_bytes, ptr noundef @.str.1328, i32 noundef %112)
  br label %125

114:                                              ; preds = %101
  %115 = load i32, ptr %12, align 4
  %116 = load i32, ptr %19, align 4
  %117 = load i32, ptr %15, align 4
  %118 = add i32 %116, %117
  %119 = icmp sgt i32 %115, %118
  br i1 %119, label %120, label %124

120:                                              ; preds = %114
  %121 = load ptr, ptr %11, align 8
  %122 = load ptr, ptr %17, align 8
  %123 = call ptr @expert_add_info(ptr noundef %121, ptr noundef %122, ptr noundef @ei_rtps_missing_bytes)
  br label %124

124:                                              ; preds = %120, %114
  br label %125

125:                                              ; preds = %124, %107
  br label %126

126:                                              ; preds = %125, %94
  store i32 0, ptr %22, align 4
  br label %127

127:                                              ; preds = %126, %41
  call void @llvm.lifetime.end.p0(i64 4, ptr %21) #14
  call void @llvm.lifetime.end.p0(i64 8, ptr %20) #14
  call void @llvm.lifetime.end.p0(i64 4, ptr %19) #14
  %128 = load i32, ptr %22, align 4
  switch i32 %128, label %130 [
    i32 0, label %129
    i32 1, label %129
  ]

129:                                              ; preds = %127, %127
  ret void

130:                                              ; preds = %127
  unreachable
}