; Function Attrs: null_pointer_is_valid sspstrong uwtable
define internal fastcc void @dissect_ACKNACK(ptr noundef %0, ptr noundef %1, i32 noundef %2, i8 noundef zeroext %3, i32 noundef range(i32 0, -2147483647) %4, i32 noundef %5, ptr noundef %6, ptr noundef %7, ptr noundef %8) unnamed_addr #0 {
  %10 = alloca i32, align 4
  call void @llvm.lifetime.start.p0(i64 4, ptr nonnull %10) #17
  %11 = add i32 %2, 1
  %12 = load i32, ptr @hf_rtps_sm_flags, align 4
  %13 = load i32, ptr @ett_rtps_flags, align 4
  %14 = zext i8 %3 to i64
  %15 = tail call ptr @proto_tree_add_bitmask_value(ptr noundef %6, ptr noundef %0, i32 noundef %11, i32 noundef %12, i32 noundef %13, ptr noundef nonnull @ACKNACK_FLAGS, i64 noundef %14)
  %16 = load i32, ptr @hf_rtps_sm_octets_to_next_header, align 4
  %17 = add i32 %2, 2
  %18 = tail call ptr @proto_tree_add_item(ptr noundef %6, i32 noundef %16, ptr noundef %0, i32 noundef %17, i32 noundef 2, i32 noundef %4)
  %19 = icmp slt i32 %5, 20
  br i1 %19, label %20, label %22

20:                                               ; preds = %9
  %21 = tail call ptr (ptr, ptr, ptr, ptr, ...) @expert_add_info_format(ptr noundef %1, ptr noundef %18, ptr noundef nonnull @ei_rtps_sm_octets_to_next_header_error, ptr noundef nonnull @.str.1326)
  br label %56

22:                                               ; preds = %9
  %23 = add i32 %2, 4
  %24 = load i32, ptr @hf_rtps_sm_rdentity_id, align 4
  %25 = load i32, ptr @hf_rtps_sm_rdentity_id_key, align 4
  %26 = load i32, ptr @hf_rtps_sm_rdentity_id_kind, align 4
  %27 = load i32, ptr @ett_rtps_rdentity, align 4
  %28 = tail call fastcc zeroext i1 @rtps_util_add_entity_id(ptr noundef %6, ptr noundef %0, i32 noundef %23, i32 noundef %24, i32 noundef %25, i32 noundef %26, i32 noundef %27, ptr noundef nonnull @.str.88, ptr noundef null)
  %29 = add i32 %2, 8
  %30 = load i32, ptr @hf_rtps_sm_wrentity_id, align 4
  %31 = load i32, ptr @hf_rtps_sm_wrentity_id_key, align 4
  %32 = load i32, ptr @hf_rtps_sm_wrentity_id_kind, align 4
  %33 = load i32, ptr @ett_rtps_wrentity, align 4
  %34 = call fastcc zeroext i1 @rtps_util_add_entity_id(ptr noundef %6, ptr noundef %0, i32 noundef %29, i32 noundef %30, i32 noundef %31, i32 noundef %32, i32 noundef %33, ptr noundef nonnull @.str.97, ptr noundef nonnull %10)
  %35 = add i32 %2, 12
  %36 = load i32, ptr %10, align 4
  %37 = getelementptr inbounds nuw i8, ptr %8, i64 16
  store i32 %36, ptr %37, align 4
  %38 = load i32, ptr %8, align 4
  %39 = or i32 %38, 8
  store i32 %39, ptr %8, align 4
  call fastcc void @rtps_util_add_topic_info(ptr noundef %6, ptr noundef %1, ptr noundef %0, i32 noundef %35, ptr noundef %8)
  %40 = call fastcc i32 @rtps_util_add_bitmap(ptr noundef %6, ptr noundef %1, ptr noundef %0, i32 noundef %35, i32 noundef %4, ptr noundef nonnull @.str.1327, i1 noundef zeroext true)
  %41 = add i32 %40, 4
  %42 = add i32 %5, %23
  %43 = icmp eq i32 %41, %42
  br i1 %43, label %44, label %47

44:                                               ; preds = %22
  %45 = load i32, ptr @hf_rtps_acknack_count, align 4
  %46 = call ptr @proto_tree_add_item(ptr noundef %6, i32 noundef %45, ptr noundef %0, i32 noundef %40, i32 noundef 4, i32 noundef %4)
  br label %56

47:                                               ; preds = %22
  %48 = icmp slt i32 %40, %42
  br i1 %48, label %49, label %52

49:                                               ; preds = %47
  %50 = sub i32 %5, %40
  %51 = call ptr (ptr, ptr, ptr, ptr, ...) @expert_add_info_format(ptr noundef %1, ptr noundef %7, ptr noundef nonnull @ei_rtps_extra_bytes, ptr noundef nonnull @.str.1328, i32 noundef %50)
  br label %56

52:                                               ; preds = %47
  %53 = icmp sgt i32 %40, %42
  br i1 %53, label %54, label %56

54:                                               ; preds = %52
  %55 = call ptr @expert_add_info(ptr noundef %1, ptr noundef %7, ptr noundef nonnull @ei_rtps_missing_bytes)
  br label %56

56:                                               ; preds = %44, %52, %54, %49, %20
  call void @llvm.lifetime.end.p0(i64 4, ptr nonnull %10) #17
  ret void
}